target datalayout = "e-m:e-p270:32:32-p271:32:32-p272:64:64-i64:64-i128:128-f80:128-n8:16:32:64-S128"
target triple = "x86_64-pc-linux-gnu"

%struct.VuDev = type { i32, i32, ptr, ptr, %struct.VuDevInflightInfo, i32, %union.pthread_mutex_t, i32, i64, ptr, i64, i64, i8, i16, ptr, ptr, ptr, ptr, ptr, i32, i8 }
%struct.VuDevInflightInfo = type { i32, ptr, i64 }
%union.pthread_mutex_t = type { %struct.__pthread_mutex_s }
%struct.__pthread_mutex_s = type { i32, i32, i32, i32, i32, i16, i16, %struct.__pthread_internal_list }
%struct.__pthread_internal_list = type { ptr, ptr }
%struct.VhostUserMsg = type <{ i32, i32, i32, %union.anon, [8 x i32], i32, ptr }>
%union.anon = type { %struct.VhostUserMemory, [8 x i8] }
%struct.VhostUserMemory = type { i32, i32, [8 x %struct.VhostUserMemoryRegion] }
%struct.VhostUserMemoryRegion = type { i64, i64, i64, i64 }
%struct.VuDevIface = type { ptr, ptr, ptr, ptr, ptr, ptr, ptr, ptr, ptr, ptr }

@.str.40 = private unnamed_addr constant [50 x i8] c"../qemu/subprojects/libvhost-user/libvhost-user.c\00", align 1
@.str.52 = private unnamed_addr constant [10 x i8] c"fbit < 64\00", align 1
@__PRETTY_FUNCTION__.has_feature = private unnamed_addr constant [42 x i8] c"_Bool has_feature(uint64_t, unsigned int)\00", align 1
@.str.61 = private unnamed_addr constant [62 x i8] c"F_IN_BAND_NOTIFICATIONS requires F_BACKEND_REQ && F_REPLY_ACK\00", align 1

; Function Attrs: inlinehint nounwind uwtable
define internal zeroext i1 @has_feature(i64 noundef %0, i32 noundef %1) #3 {
  %3 = alloca i64, align 8
  %4 = alloca i32, align 4
  store i64 %0, ptr %3, align 8
  store i32 %1, ptr %4, align 4
  %5 = load i32, ptr %4, align 4
  %6 = icmp ult i32 %5, 64
  br i1 %6, label %7, label %8

7:                                                ; preds = %2
  br label %9

8:                                                ; preds = %2
  call void @__assert_fail(ptr noundef @.str.52, ptr noundef @.str.40, i32 noundef 109, ptr noundef @__PRETTY_FUNCTION__.has_feature) #15
  unreachable

9:                                                ; preds = %7
  %10 = load i64, ptr %3, align 8
  %11 = load i32, ptr %4, align 4
  %12 = zext i32 %11 to i64
  %13 = shl i64 1, %12
  %14 = and i64 %10, %13
  %15 = icmp ne i64 %14, 0
  %16 = xor i1 %15, true
  %17 = xor i1 %16, true
  ret i1 %17
}

; Function Attrs: inlinehint nounwind uwtable
define internal zeroext i1 @vu_has_protocol_feature(ptr noundef %0, i32 noundef %1) #3 {
  %3 = alloca ptr, align 8
  %4 = alloca i32, align 4
  store ptr %0, ptr %3, align 8
  store i32 %1, ptr %4, align 4
  %5 = load ptr, ptr %3, align 8
  %6 = getelementptr inbounds nuw %struct.VuDev, ptr %5, i32 0, i32 11
  %7 = load i64, ptr %6, align 8
  %8 = load i32, ptr %4, align 4
  %9 = call zeroext i1 @has_feature(i64 noundef %7, i32 noundef %8)
  ret i1 %9
}

; Function Attrs: nounwind uwtable
define internal zeroext i1 @vu_set_protocol_features_exec(ptr noundef %0, ptr noundef %1) #0 {
  %3 = alloca i1, align 1
  %4 = alloca ptr, align 8
  %5 = alloca ptr, align 8
  %6 = alloca i64, align 8
  %7 = alloca i32, align 4
  store ptr %0, ptr %4, align 8
  store ptr %1, ptr %5, align 8
  call void @llvm.lifetime.start.p0(i64 8, ptr %6) #13
  %8 = load ptr, ptr %5, align 8
  %9 = getelementptr inbounds nuw %struct.VhostUserMsg, ptr %8, i32 0, i32 3
  %10 = load i64, ptr %9, align 1
  store i64 %10, ptr %6, align 8
  br label %11

11:                                               ; preds = %2
  br label %12

12:                                               ; preds = %11
  br label %13

13:                                               ; preds = %12
  %14 = load ptr, ptr %5, align 8
  %15 = getelementptr inbounds nuw %struct.VhostUserMsg, ptr %14, i32 0, i32 3
  %16 = load i64, ptr %15, align 1
  %17 = load ptr, ptr %4, align 8
  %18 = getelementptr inbounds nuw %struct.VuDev, ptr %17, i32 0, i32 11
  store i64 %16, ptr %18, align 8
  %19 = load ptr, ptr %4, align 8
  %20 = call zeroext i1 @vu_has_protocol_feature(ptr noundef %19, i32 noundef 14)
  br i1 %20, label %21, label %29

21:                                               ; preds = %13
  %22 = load ptr, ptr %4, align 8
  %23 = call zeroext i1 @vu_has_protocol_feature(ptr noundef %22, i32 noundef 5)
  br i1 %23, label %24, label %27

24:                                               ; preds = %21
  %25 = load ptr, ptr %4, align 8
  %26 = call zeroext i1 @vu_has_protocol_feature(ptr noundef %25, i32 noundef 3)
  br i1 %26, label %29, label %27

27:                                               ; preds = %24, %21
  %28 = load ptr, ptr %4, align 8
  call void (ptr, ptr, ...) @vu_panic(ptr noundef %28, ptr noundef @.str.61)
  store i1 false, ptr %3, align 1
  store i32 1, ptr %7, align 4
  br label %45

29:                                               ; preds = %24, %13
  %30 = load ptr, ptr %4, align 8
  %31 = getelementptr inbounds nuw %struct.VuDev, ptr %30, i32 0, i32 18
  %32 = load ptr, ptr %31, align 8
  %33 = getelementptr inbounds nuw %struct.VuDevIface, ptr %32, i32 0, i32 3
  %34 = load ptr, ptr %33, align 8
  %35 = icmp ne ptr %34, null
  br i1 %35, label %36, label %44

36:                                               ; preds = %29
  %37 = load ptr, ptr %4, align 8
  %38 = getelementptr inbounds nuw %struct.VuDev, ptr %37, i32 0, i32 18
  %39 = load ptr, ptr %38, align 8
  %40 = getelementptr inbounds nuw %struct.VuDevIface, ptr %39, i32 0, i32 3
  %41 = load ptr, ptr %40, align 8
  %42 = load ptr, ptr %4, align 8
  %43 = load i64, ptr %6, align 8
  call void %41(ptr noundef %42, i64 noundef %43)
  br label %44

44:                                               ; preds = %36, %29
  store i1 false, ptr %3, align 1
  store i32 1, ptr %7, align 4
  br label %45

45:                                               ; preds = %44, %27
  call void @llvm.lifetime.end.p0(i64 8, ptr %6) #13
  %46 = load i1, ptr %3, align 1
  ret i1 %46
}