; Function Attrs: nounwind uwtable
define internal fastcc void @vu_set_protocol_features_exec(ptr noundef initializes((128, 136)) %0, i64 %.12.val) unnamed_addr #3 {
  %2 = getelementptr inbounds nuw i8, ptr %0, i64 128
  store i64 %.12.val, ptr %2, align 8
  %3 = and i64 %.12.val, 16384
  %.not2 = icmp eq i64 %3, 0
  %4 = and i64 %.12.val, 40
  %or.cond = icmp eq i64 %4, 40
  %or.cond3 = or i1 %.not2, %or.cond
  br i1 %or.cond3, label %6, label %5

5:                                                ; preds = %1
  tail call void (ptr, ptr, ...) @vu_panic(ptr noundef nonnull %0, ptr noundef nonnull @.str.61)
  br label %12

6:                                                ; preds = %1
  %7 = getelementptr inbounds nuw i8, ptr %0, i64 176
  %8 = load ptr, ptr %7, align 8
  %9 = getelementptr inbounds nuw i8, ptr %8, i64 24
  %10 = load ptr, ptr %9, align 8
  %.not = icmp eq ptr %10, null
  br i1 %.not, label %12, label %11

11:                                               ; preds = %6
  tail call void %10(ptr noundef nonnull %0, i64 noundef %.12.val) #21
  br label %12

12:                                               ; preds = %6, %11, %5
  ret void
}